   1              		.syntax unified
   2              		.arch armv7e-m
   3              		.eabi_attribute 27, 1
   4              		.eabi_attribute 28, 1
   5              		.fpu fpv4-sp-d16
   6              		.eabi_attribute 20, 1
   7              		.eabi_attribute 21, 1
   8              		.eabi_attribute 23, 3
   9              		.eabi_attribute 24, 1
  10              		.eabi_attribute 25, 1
  11              		.eabi_attribute 26, 1
  12              		.eabi_attribute 30, 4
  13              		.eabi_attribute 34, 1
  14              		.eabi_attribute 18, 4
  15              		.thumb
  16              		.file	"syscalls.c"
  17              		.text
  18              	.Ltext0:
  19              		.cfi_sections	.debug_frame
  20              		.align	1
  21              		.global	_exit
  22              		.thumb
  23              		.thumb_func
  24              		.type	_exit, %function
  25              	_exit:
  26              	.LFB392:
  27              		.file 1 "src/sys/syscalls.c"
   1:src/sys/syscalls.c **** #include <errno.h>
   2:src/sys/syscalls.c **** #include <stdlib.h>
   3:src/sys/syscalls.c **** #include <sys/stat.h>
   4:src/sys/syscalls.c **** #include <sys/times.h>
   5:src/sys/syscalls.c **** #include <sys/unistd.h>
   6:src/sys/syscalls.c **** #include "devices.h"
   7:src/sys/syscalls.c **** 
   8:src/sys/syscalls.c **** #undef errno
   9:src/sys/syscalls.c **** extern int errno;
  10:src/sys/syscalls.c **** 
  11:src/sys/syscalls.c **** void _exit(int status) {
  28              		.loc 1 11 0
  29              		.cfi_startproc
  30              		@ Volatile: function does not return.
  31              		@ args = 0, pretend = 0, frame = 0
  32              		@ frame_needed = 0, uses_anonymous_args = 0
  33              		@ link register save eliminated.
  34              	.LVL0:
  35              	.L2:
  12:src/sys/syscalls.c ****   while(1);
  36              		.loc 1 12 0 discriminator 1
  37 0000 FEE7     		b	.L2
  38              		.cfi_endproc
  39              	.LFE392:
  40              		.size	_exit, .-_exit
  41              		.align	1
  42              		.global	_open
  43              		.thumb
  44              		.thumb_func
  45              		.type	_open, %function
  46              	_open:
  47              	.LFB393:
  13:src/sys/syscalls.c **** }
  14:src/sys/syscalls.c **** 
  15:src/sys/syscalls.c **** int _open(const char *pathname, int flags, mode_t mode) {
  48              		.loc 1 15 0
  49              		.cfi_startproc
  50              		@ args = 0, pretend = 0, frame = 0
  51              		@ frame_needed = 0, uses_anonymous_args = 0
  52              		@ link register save eliminated.
  53              	.LVL1:
  16:src/sys/syscalls.c ****     errno=ENOSYS;
  54              		.loc 1 16 0
  55 0002 034B     		ldr	r3, .L4
  56 0004 5822     		movs	r2, #88
  57              	.LVL2:
  58 0006 1A60     		str	r2, [r3]
  17:src/sys/syscalls.c ****     return -1;
  18:src/sys/syscalls.c **** }
  59              		.loc 1 18 0
  60 0008 4FF0FF30 		mov	r0, #-1
  61              	.LVL3:
  62 000c 7047     		bx	lr
  63              	.L5:
  64 000e 00BF     		.align	2
  65              	.L4:
  66 0010 00000000 		.word	errno
  67              		.cfi_endproc
  68              	.LFE393:
  69              		.size	_open, .-_open
  70              		.align	1
  71              		.global	_close
  72              		.thumb
  73              		.thumb_func
  74              		.type	_close, %function
  75              	_close:
  76              	.LFB394:
  19:src/sys/syscalls.c **** 
  20:src/sys/syscalls.c **** int _close(int file) {
  77              		.loc 1 20 0
  78              		.cfi_startproc
  79              		@ args = 0, pretend = 0, frame = 0
  80              		@ frame_needed = 0, uses_anonymous_args = 0
  81              		@ link register save eliminated.
  82              	.LVL4:
  21:src/sys/syscalls.c ****     errno=ENOSYS;
  83              		.loc 1 21 0
  84 0014 024B     		ldr	r3, .L7
  85 0016 5822     		movs	r2, #88
  86 0018 1A60     		str	r2, [r3]
  22:src/sys/syscalls.c ****     return -1;
  23:src/sys/syscalls.c **** }
  87              		.loc 1 23 0
  88 001a 4FF0FF30 		mov	r0, #-1
  89              	.LVL5:
  90 001e 7047     		bx	lr
  91              	.L8:
  92              		.align	2
  93              	.L7:
  94 0020 00000000 		.word	errno
  95              		.cfi_endproc
  96              	.LFE394:
  97              		.size	_close, .-_close
  98              		.align	1
  99              		.global	_execve
 100              		.thumb
 101              		.thumb_func
 102              		.type	_execve, %function
 103              	_execve:
 104              	.LFB395:
  24:src/sys/syscalls.c **** 
  25:src/sys/syscalls.c **** int _execve(char *name, char **argv, char **env) {
 105              		.loc 1 25 0
 106              		.cfi_startproc
 107              		@ args = 0, pretend = 0, frame = 0
 108              		@ frame_needed = 0, uses_anonymous_args = 0
 109              		@ link register save eliminated.
 110              	.LVL6:
  26:src/sys/syscalls.c ****     errno = ENOSYS;
 111              		.loc 1 26 0
 112 0024 024B     		ldr	r3, .L10
 113 0026 5822     		movs	r2, #88
 114              	.LVL7:
 115 0028 1A60     		str	r2, [r3]
  27:src/sys/syscalls.c ****     return -1;
  28:src/sys/syscalls.c **** }
 116              		.loc 1 28 0
 117 002a 4FF0FF30 		mov	r0, #-1
 118              	.LVL8:
 119 002e 7047     		bx	lr
 120              	.L11:
 121              		.align	2
 122              	.L10:
 123 0030 00000000 		.word	errno
 124              		.cfi_endproc
 125              	.LFE395:
 126              		.size	_execve, .-_execve
 127              		.align	1
 128              		.global	_fork
 129              		.thumb
 130              		.thumb_func
 131              		.type	_fork, %function
 132              	_fork:
 133              	.LFB396:
  29:src/sys/syscalls.c **** 
  30:src/sys/syscalls.c **** int _fork() {
 134              		.loc 1 30 0
 135              		.cfi_startproc
 136              		@ args = 0, pretend = 0, frame = 0
 137              		@ frame_needed = 0, uses_anonymous_args = 0
 138              		@ link register save eliminated.
  31:src/sys/syscalls.c ****     errno = ENOSYS;
 139              		.loc 1 31 0
 140 0034 024B     		ldr	r3, .L13
 141 0036 5822     		movs	r2, #88
 142 0038 1A60     		str	r2, [r3]
  32:src/sys/syscalls.c ****     return -1;
  33:src/sys/syscalls.c **** }
 143              		.loc 1 33 0
 144 003a 4FF0FF30 		mov	r0, #-1
 145 003e 7047     		bx	lr
 146              	.L14:
 147              		.align	2
 148              	.L13:
 149 0040 00000000 		.word	errno
 150              		.cfi_endproc
 151              	.LFE396:
 152              		.size	_fork, .-_fork
 153              		.align	1
 154              		.global	_kill
 155              		.thumb
 156              		.thumb_func
 157              		.type	_kill, %function
 158              	_kill:
 159              	.LFB397:
  34:src/sys/syscalls.c **** 
  35:src/sys/syscalls.c **** int _kill(int pid, int sig) {
 160              		.loc 1 35 0
 161              		.cfi_startproc
 162              		@ args = 0, pretend = 0, frame = 0
 163              		@ frame_needed = 0, uses_anonymous_args = 0
 164              		@ link register save eliminated.
 165              	.LVL9:
  36:src/sys/syscalls.c ****   errno = ENOSYS;
 166              		.loc 1 36 0
 167 0044 024B     		ldr	r3, .L16
 168 0046 5822     		movs	r2, #88
 169 0048 1A60     		str	r2, [r3]
  37:src/sys/syscalls.c ****   return (-1);
  38:src/sys/syscalls.c **** }
 170              		.loc 1 38 0
 171 004a 4FF0FF30 		mov	r0, #-1
 172              	.LVL10:
 173 004e 7047     		bx	lr
 174              	.L17:
 175              		.align	2
 176              	.L16:
 177 0050 00000000 		.word	errno
 178              		.cfi_endproc
 179              	.LFE397:
 180              		.size	_kill, .-_kill
 181              		.align	1
 182              		.global	_link
 183              		.thumb
 184              		.thumb_func
 185              		.type	_link, %function
 186              	_link:
 187              	.LFB398:
  39:src/sys/syscalls.c **** 
  40:src/sys/syscalls.c **** int _link(char *old, char *new) {
 188              		.loc 1 40 0
 189              		.cfi_startproc
 190              		@ args = 0, pretend = 0, frame = 0
 191              		@ frame_needed = 0, uses_anonymous_args = 0
 192              		@ link register save eliminated.
 193              	.LVL11:
  41:src/sys/syscalls.c ****   errno = ENOSYS;
 194              		.loc 1 41 0
 195 0054 024B     		ldr	r3, .L19
 196 0056 5822     		movs	r2, #88
 197 0058 1A60     		str	r2, [r3]
  42:src/sys/syscalls.c ****   return -1;
  43:src/sys/syscalls.c **** }
 198              		.loc 1 43 0
 199 005a 4FF0FF30 		mov	r0, #-1
 200              	.LVL12:
 201 005e 7047     		bx	lr
 202              	.L20:
 203              		.align	2
 204              	.L19:
 205 0060 00000000 		.word	errno
 206              		.cfi_endproc
 207              	.LFE398:
 208              		.size	_link, .-_link
 209              		.align	1
 210              		.global	_lseek
 211              		.thumb
 212              		.thumb_func
 213              		.type	_lseek, %function
 214              	_lseek:
 215              	.LFB399:
  44:src/sys/syscalls.c **** 
  45:src/sys/syscalls.c **** int _lseek(int file, int ptr, int dir) {
 216              		.loc 1 45 0
 217              		.cfi_startproc
 218              		@ args = 0, pretend = 0, frame = 0
 219              		@ frame_needed = 0, uses_anonymous_args = 0
 220              		@ link register save eliminated.
 221              	.LVL13:
  46:src/sys/syscalls.c ****   errno=ENOSYS;
 222              		.loc 1 46 0
 223 0064 024B     		ldr	r3, .L22
 224 0066 5822     		movs	r2, #88
 225              	.LVL14:
 226 0068 1A60     		str	r2, [r3]
  47:src/sys/syscalls.c ****   return -1;
  48:src/sys/syscalls.c **** }
 227              		.loc 1 48 0
 228 006a 4FF0FF30 		mov	r0, #-1
 229              	.LVL15:
 230 006e 7047     		bx	lr
 231              	.L23:
 232              		.align	2
 233              	.L22:
 234 0070 00000000 		.word	errno
 235              		.cfi_endproc
 236              	.LFE399:
 237              		.size	_lseek, .-_lseek
 238              		.align	1
 239              		.global	_fstat
 240              		.thumb
 241              		.thumb_func
 242              		.type	_fstat, %function
 243              	_fstat:
 244              	.LFB400:
  49:src/sys/syscalls.c **** 
  50:src/sys/syscalls.c **** int _fstat(int file, struct stat *st) {
 245              		.loc 1 50 0
 246              		.cfi_startproc
 247              		@ args = 0, pretend = 0, frame = 0
 248              		@ frame_needed = 0, uses_anonymous_args = 0
 249              		@ link register save eliminated.
 250              	.LVL16:
  51:src/sys/syscalls.c ****   errno=ENOSYS;
 251              		.loc 1 51 0
 252 0074 024B     		ldr	r3, .L25
 253 0076 5822     		movs	r2, #88
 254 0078 1A60     		str	r2, [r3]
  52:src/sys/syscalls.c ****   return -1;
  53:src/sys/syscalls.c **** }
 255              		.loc 1 53 0
 256 007a 4FF0FF30 		mov	r0, #-1
 257              	.LVL17:
 258 007e 7047     		bx	lr
 259              	.L26:
 260              		.align	2
 261              	.L25:
 262 0080 00000000 		.word	errno
 263              		.cfi_endproc
 264              	.LFE400:
 265              		.size	_fstat, .-_fstat
 266              		.align	1
 267              		.global	_stat
 268              		.thumb
 269              		.thumb_func
 270              		.type	_stat, %function
 271              	_stat:
 272              	.LFB401:
  54:src/sys/syscalls.c **** 
  55:src/sys/syscalls.c **** int _stat(const char *filepath, struct stat *st) {
 273              		.loc 1 55 0
 274              		.cfi_startproc
 275              		@ args = 0, pretend = 0, frame = 0
 276              		@ frame_needed = 0, uses_anonymous_args = 0
 277              		@ link register save eliminated.
 278              	.LVL18:
  56:src/sys/syscalls.c ****     errno=ENOSYS;
 279              		.loc 1 56 0
 280 0084 024B     		ldr	r3, .L28
 281 0086 5822     		movs	r2, #88
 282 0088 1A60     		str	r2, [r3]
  57:src/sys/syscalls.c ****     return -1;
  58:src/sys/syscalls.c **** }
 283              		.loc 1 58 0
 284 008a 4FF0FF30 		mov	r0, #-1
 285              	.LVL19:
 286 008e 7047     		bx	lr
 287              	.L29:
 288              		.align	2
 289              	.L28:
 290 0090 00000000 		.word	errno
 291              		.cfi_endproc
 292              	.LFE401:
 293              		.size	_stat, .-_stat
 294              		.align	1
 295              		.global	_times
 296              		.thumb
 297              		.thumb_func
 298              		.type	_times, %function
 299              	_times:
 300              	.LFB402:
  59:src/sys/syscalls.c **** 
  60:src/sys/syscalls.c **** clock_t _times(struct tms *buf) {
 301              		.loc 1 60 0
 302              		.cfi_startproc
 303              		@ args = 0, pretend = 0, frame = 0
 304              		@ frame_needed = 0, uses_anonymous_args = 0
 305              		@ link register save eliminated.
 306              	.LVL20:
  61:src/sys/syscalls.c ****    errno=ENOSYS;
 307              		.loc 1 61 0
 308 0094 024B     		ldr	r3, .L31
 309 0096 5822     		movs	r2, #88
 310 0098 1A60     		str	r2, [r3]
  62:src/sys/syscalls.c ****    return -1;
  63:src/sys/syscalls.c **** }
 311              		.loc 1 63 0
 312 009a 4FF0FF30 		mov	r0, #-1
 313              	.LVL21:
 314 009e 7047     		bx	lr
 315              	.L32:
 316              		.align	2
 317              	.L31:
 318 00a0 00000000 		.word	errno
 319              		.cfi_endproc
 320              	.LFE402:
 321              		.size	_times, .-_times
 322              		.align	1
 323              		.global	_unlink
 324              		.thumb
 325              		.thumb_func
 326              		.type	_unlink, %function
 327              	_unlink:
 328              	.LFB403:
  64:src/sys/syscalls.c **** 
  65:src/sys/syscalls.c **** int _unlink(char *name) {
 329              		.loc 1 65 0
 330              		.cfi_startproc
 331              		@ args = 0, pretend = 0, frame = 0
 332              		@ frame_needed = 0, uses_anonymous_args = 0
 333              		@ link register save eliminated.
 334              	.LVL22:
  66:src/sys/syscalls.c ****    errno = ENOSYS;
 335              		.loc 1 66 0
 336 00a4 024B     		ldr	r3, .L34
 337 00a6 5822     		movs	r2, #88
 338 00a8 1A60     		str	r2, [r3]
  67:src/sys/syscalls.c ****    return -1;
  68:src/sys/syscalls.c **** }
 339              		.loc 1 68 0
 340 00aa 4FF0FF30 		mov	r0, #-1
 341              	.LVL23:
 342 00ae 7047     		bx	lr
 343              	.L35:
 344              		.align	2
 345              	.L34:
 346 00b0 00000000 		.word	errno
 347              		.cfi_endproc
 348              	.LFE403:
 349              		.size	_unlink, .-_unlink
 350              		.align	1
 351              		.global	_wait
 352              		.thumb
 353              		.thumb_func
 354              		.type	_wait, %function
 355              	_wait:
 356              	.LFB404:
  69:src/sys/syscalls.c **** 
  70:src/sys/syscalls.c **** int _wait(int status) {
 357              		.loc 1 70 0
 358              		.cfi_startproc
 359              		@ args = 0, pretend = 0, frame = 0
 360              		@ frame_needed = 0, uses_anonymous_args = 0
 361              		@ link register save eliminated.
 362              	.LVL24:
  71:src/sys/syscalls.c ****     errno = ENOSYS;
 363              		.loc 1 71 0
 364 00b4 024B     		ldr	r3, .L37
 365 00b6 5822     		movs	r2, #88
 366 00b8 1A60     		str	r2, [r3]
  72:src/sys/syscalls.c ****     return -1;
  73:src/sys/syscalls.c **** }
 367              		.loc 1 73 0
 368 00ba 4FF0FF30 		mov	r0, #-1
 369              	.LVL25:
 370 00be 7047     		bx	lr
 371              	.L38:
 372              		.align	2
 373              	.L37:
 374 00c0 00000000 		.word	errno
 375              		.cfi_endproc
 376              	.LFE404:
 377              		.size	_wait, .-_wait
 378              		.align	1
 379              		.global	_getpid
 380              		.thumb
 381              		.thumb_func
 382              		.type	_getpid, %function
 383              	_getpid:
 384              	.LFB405:
  74:src/sys/syscalls.c **** 
  75:src/sys/syscalls.c **** /*
  76:src/sys/syscalls.c ****  getpid
  77:src/sys/syscalls.c ****  Return current process ID (only one process).
  78:src/sys/syscalls.c **** */
  79:src/sys/syscalls.c **** 
  80:src/sys/syscalls.c **** int _getpid() {
 385              		.loc 1 80 0
 386              		.cfi_startproc
 387              		@ args = 0, pretend = 0, frame = 0
 388              		@ frame_needed = 0, uses_anonymous_args = 0
 389              		@ link register save eliminated.
  81:src/sys/syscalls.c ****   return 1;
  82:src/sys/syscalls.c **** }
 390              		.loc 1 82 0
 391 00c4 0120     		movs	r0, #1
 392 00c6 7047     		bx	lr
 393              		.cfi_endproc
 394              	.LFE405:
 395              		.size	_getpid, .-_getpid
 396              		.align	1
 397              		.global	_isatty
 398              		.thumb
 399              		.thumb_func
 400              		.type	_isatty, %function
 401              	_isatty:
 402              	.LFB406:
  83:src/sys/syscalls.c **** 
  84:src/sys/syscalls.c **** /*
  85:src/sys/syscalls.c ****  isatty
  86:src/sys/syscalls.c ****  Query whether output stream is a terminal. For consistency with the other
  87:src/sys/syscalls.c ****  minimal implementations,
  88:src/sys/syscalls.c **** */
  89:src/sys/syscalls.c **** 
  90:src/sys/syscalls.c **** int _isatty(int file) {
 403              		.loc 1 90 0
 404              		.cfi_startproc
 405              		@ args = 0, pretend = 0, frame = 0
 406              		@ frame_needed = 0, uses_anonymous_args = 0
 407              		@ link register save eliminated.
 408              	.LVL26:
  91:src/sys/syscalls.c ****     switch (file){
 409              		.loc 1 91 0
 410 00c8 0228     		cmp	r0, #2
  92:src/sys/syscalls.c ****     case STDOUT_FILENO:
  93:src/sys/syscalls.c ****     case STDERR_FILENO:
  94:src/sys/syscalls.c ****     case STDIN_FILENO:
  95:src/sys/syscalls.c ****         return 1;
  96:src/sys/syscalls.c ****     default:
  97:src/sys/syscalls.c ****         errno = EBADF;
 411              		.loc 1 97 0
 412 00ca 81BF     		itttt	hi
 413 00cc 034B     		ldrhi	r3, .L45
 414 00ce 0922     		movhi	r2, #9
  98:src/sys/syscalls.c ****         return 0;
 415              		.loc 1 98 0
 416 00d0 0020     		movhi	r0, #0
 417              	.LVL27:
  97:src/sys/syscalls.c ****         return 0;
 418              		.loc 1 97 0
 419 00d2 1A60     		strhi	r2, [r3]
  95:src/sys/syscalls.c ****     default:
 420              		.loc 1 95 0
 421 00d4 98BF     		it	ls
 422 00d6 0120     		movls	r0, #1
  99:src/sys/syscalls.c ****     }
 100:src/sys/syscalls.c **** }
 423              		.loc 1 100 0
 424 00d8 7047     		bx	lr
 425              	.L46:
 426 00da 00BF     		.align	2
 427              	.L45:
 428 00dc 00000000 		.word	errno
 429              		.cfi_endproc
 430              	.LFE406:
 431              		.size	_isatty, .-_isatty
 432              		.align	1
 433              		.global	_read
 434              		.thumb
 435              		.thumb_func
 436              		.type	_read, %function
 437              	_read:
 438              	.LFB407:
 101:src/sys/syscalls.c **** 
 102:src/sys/syscalls.c **** #ifndef STDOUT_USART
 103:src/sys/syscalls.c **** #define STDOUT_USART USART2
 104:src/sys/syscalls.c **** #endif
 105:src/sys/syscalls.c **** 
 106:src/sys/syscalls.c **** #ifndef STDERR_USART
 107:src/sys/syscalls.c **** #define STDERR_USART USART2
 108:src/sys/syscalls.c **** #endif
 109:src/sys/syscalls.c **** 
 110:src/sys/syscalls.c **** #ifndef STDIN_USART
 111:src/sys/syscalls.c **** #define STDIN_USART USART2
 112:src/sys/syscalls.c **** #endif
 113:src/sys/syscalls.c **** 
 114:src/sys/syscalls.c **** /*
 115:src/sys/syscalls.c ****  read
 116:src/sys/syscalls.c ****  Read a character to a file. `libc' subroutines will use this system routine for input from all fil
 117:src/sys/syscalls.c ****  Returns -1 on error or blocks until the number of characters have been read.
 118:src/sys/syscalls.c ****  */
 119:src/sys/syscalls.c **** 
 120:src/sys/syscalls.c **** int _read(int file, char *ptr, int len) {
 439              		.loc 1 120 0
 440              		.cfi_startproc
 441              		@ args = 0, pretend = 0, frame = 0
 442              		@ frame_needed = 0, uses_anonymous_args = 0
 443              	.LVL28:
 444 00e0 10B5     		push	{r4, lr}
 445              		.cfi_def_cfa_offset 8
 446              		.cfi_offset 4, -8
 447              		.cfi_offset 14, -4
 121:src/sys/syscalls.c ****     int n;
 122:src/sys/syscalls.c ****     int num = 0;
 123:src/sys/syscalls.c ****     switch (file) {
 448              		.loc 1 123 0
 449 00e2 58B9     		cbnz	r0, .L57
 450              		.loc 1 123 0 is_stmt 0 discriminator 1
 451 00e4 0B46     		mov	r3, r1
 452              	.LVL29:
 453              	.L50:
 454 00e6 581A     		subs	r0, r3, r1
 455              	.LVL30:
 124:src/sys/syscalls.c ****     case STDIN_FILENO:
 125:src/sys/syscalls.c ****         for (n = 0; n < len; n++) {
 456              		.loc 1 125 0 is_stmt 1 discriminator 1
 457 00e8 9042     		cmp	r0, r2
 458 00ea 0DDA     		bge	.L60
 459              	.LVL31:
 460              	.L55:
 126:src/sys/syscalls.c **** 	  while ((STDIN_USART.SR & (1<<5)) == 0) {}
 461              		.loc 1 126 0 discriminator 1
 462 00ec 0848     		ldr	r0, .L61
 463 00ee 0468     		ldr	r4, [r0]
 464 00f0 A406     		lsls	r4, r4, #26
 465 00f2 FBD5     		bpl	.L55
 127:src/sys/syscalls.c ****             *ptr++ = STDIN_USART.DR & 0xff;
 466              		.loc 1 127 0 discriminator 2
 467 00f4 4068     		ldr	r0, [r0, #4]
 468 00f6 03F8010B 		strb	r0, [r3], #1
 469              	.LVL32:
 470 00fa F4E7     		b	.L50
 471              	.LVL33:
 472              	.L57:
 128:src/sys/syscalls.c ****             num++;
 129:src/sys/syscalls.c ****         }
 130:src/sys/syscalls.c ****         break;
 131:src/sys/syscalls.c ****     default:
 132:src/sys/syscalls.c ****         errno = EBADF;
 473              		.loc 1 132 0
 474 00fc 054B     		ldr	r3, .L61+4
 475 00fe 0922     		movs	r2, #9
 476              	.LVL34:
 477 0100 1A60     		str	r2, [r3]
 133:src/sys/syscalls.c ****         return -1;
 478              		.loc 1 133 0
 479 0102 4FF0FF30 		mov	r0, #-1
 480              	.LVL35:
 481 0106 10BD     		pop	{r4, pc}
 482              	.LVL36:
 483              	.L60:
 484 0108 22EAE270 		bic	r0, r2, r2, asr #31
 485              	.LVL37:
 134:src/sys/syscalls.c ****     }
 135:src/sys/syscalls.c ****     return num;
 136:src/sys/syscalls.c **** }
 486              		.loc 1 136 0
 487 010c 10BD     		pop	{r4, pc}
 488              	.L62:
 489 010e 00BF     		.align	2
 490              	.L61:
 491 0110 00000000 		.word	USART2
 492 0114 00000000 		.word	errno
 493              		.cfi_endproc
 494              	.LFE407:
 495              		.size	_read, .-_read
 496              		.align	1
 497              		.global	_write
 498              		.thumb
 499              		.thumb_func
 500              		.type	_write, %function
 501              	_write:
 502              	.LFB408:
 137:src/sys/syscalls.c **** 
 138:src/sys/syscalls.c **** /*
 139:src/sys/syscalls.c ****  write
 140:src/sys/syscalls.c ****  Write a character to a file. `libc' subroutines will use this system routine for output to all fil
 141:src/sys/syscalls.c ****  Returns -1 on error or number of bytes sent
 142:src/sys/syscalls.c ****  */
 143:src/sys/syscalls.c **** 
 144:src/sys/syscalls.c **** int _write(int file, char *ptr, int len) {
 503              		.loc 1 144 0
 504              		.cfi_startproc
 505              		@ args = 0, pretend = 0, frame = 0
 506              		@ frame_needed = 0, uses_anonymous_args = 0
 507              	.LVL38:
 145:src/sys/syscalls.c ****     int n;
 146:src/sys/syscalls.c ****     switch (file) {
 508              		.loc 1 146 0
 509 0118 0128     		cmp	r0, #1
 144:src/sys/syscalls.c ****     int n;
 510              		.loc 1 144 0
 511 011a 10B5     		push	{r4, lr}
 512              		.cfi_def_cfa_offset 8
 513              		.cfi_offset 4, -8
 514              		.cfi_offset 14, -4
 515              		.loc 1 146 0
 516 011c 03D0     		beq	.L65
 517 011e 0228     		cmp	r0, #2
 518 0120 19D1     		bne	.L79
 519              		.loc 1 146 0 is_stmt 0 discriminator 1
 520 0122 0B46     		mov	r3, r1
 521 0124 12E0     		b	.L67
 522              	.L65:
 523 0126 0B46     		mov	r3, r1
 524              	.LVL39:
 525              	.L68:
 526 0128 581A     		subs	r0, r3, r1
 527              	.LVL40:
 147:src/sys/syscalls.c ****     case STDOUT_FILENO: /* stdout */
 148:src/sys/syscalls.c ****         for (n = 0; n < len; n++) {
 528              		.loc 1 148 0 is_stmt 1 discriminator 1
 529 012a 9042     		cmp	r0, r2
 530 012c 11DA     		bge	.L72
 531              	.LVL41:
 532              	.L75:
 149:src/sys/syscalls.c **** 
 150:src/sys/syscalls.c ****     	  while ((STDOUT_USART.SR & (1<<7)) == 0) {}
 533              		.loc 1 150 0 discriminator 1
 534 012e 0D48     		ldr	r0, .L80
 535 0130 0468     		ldr	r4, [r0]
 536 0132 2406     		lsls	r4, r4, #24
 537 0134 FBD5     		bpl	.L75
 151:src/sys/syscalls.c ****           STDOUT_USART.DR = *ptr++;
 538              		.loc 1 151 0 discriminator 2
 539 0136 13F8014B 		ldrb	r4, [r3], #1	@ zero_extendqisi2
 540              	.LVL42:
 541 013a 4460     		str	r4, [r0, #4]
 542              	.LVL43:
 543 013c F4E7     		b	.L68
 544              	.LVL44:
 545              	.L76:
 152:src/sys/syscalls.c ****         }
 153:src/sys/syscalls.c ****         break;
 154:src/sys/syscalls.c ****     case STDERR_FILENO: /* stderr */
 155:src/sys/syscalls.c ****         for (n = 0; n < len; n++) {
 156:src/sys/syscalls.c **** 
 157:src/sys/syscalls.c ****     	  while ((STDERR_USART.SR & (1<<7)) == 0) {}
 546              		.loc 1 157 0 discriminator 1
 547 013e 0948     		ldr	r0, .L80
 548 0140 0468     		ldr	r4, [r0]
 549 0142 2406     		lsls	r4, r4, #24
 550 0144 FBD5     		bpl	.L76
 158:src/sys/syscalls.c ****           STDERR_USART.DR = *ptr++;
 551              		.loc 1 158 0 discriminator 2
 552 0146 13F8014B 		ldrb	r4, [r3], #1	@ zero_extendqisi2
 553              	.LVL45:
 554 014a 4460     		str	r4, [r0, #4]
 555              	.LVL46:
 556              	.L67:
 557 014c 581A     		subs	r0, r3, r1
 558              	.LVL47:
 155:src/sys/syscalls.c **** 
 559              		.loc 1 155 0 discriminator 1
 560 014e 9042     		cmp	r0, r2
 561 0150 F5DB     		blt	.L76
 562              	.L72:
 159:src/sys/syscalls.c ****         }
 160:src/sys/syscalls.c ****         break;
 161:src/sys/syscalls.c ****     default:
 162:src/sys/syscalls.c ****         errno = EBADF;
 163:src/sys/syscalls.c ****         return -1;
 563              		.loc 1 163 0
 564 0152 1046     		mov	r0, r2
 565              	.LVL48:
 566 0154 10BD     		pop	{r4, pc}
 567              	.LVL49:
 568              	.L79:
 162:src/sys/syscalls.c ****         return -1;
 569              		.loc 1 162 0
 570 0156 044B     		ldr	r3, .L80+4
 571 0158 0922     		movs	r2, #9
 572              	.LVL50:
 573 015a 1A60     		str	r2, [r3]
 574              		.loc 1 163 0
 575 015c 4FF0FF30 		mov	r0, #-1
 576              	.LVL51:
 164:src/sys/syscalls.c ****     }
 165:src/sys/syscalls.c ****     return len;
 166:src/sys/syscalls.c **** }
 577              		.loc 1 166 0
 578 0160 10BD     		pop	{r4, pc}
 579              	.L81:
 580 0162 00BF     		.align	2
 581              	.L80:
 582 0164 00000000 		.word	USART2
 583 0168 00000000 		.word	errno
 584              		.cfi_endproc
 585              	.LFE408:
 586              		.size	_write, .-_write
 587              		.align	1
 588              		.global	_sbrk
 589              		.thumb
 590              		.thumb_func
 591              		.type	_sbrk, %function
 592              	_sbrk:
 593              	.LFB409:
 167:src/sys/syscalls.c **** 
 168:src/sys/syscalls.c **** /*
 169:src/sys/syscalls.c ****  sbrk
 170:src/sys/syscalls.c ****  Increase program data space.
 171:src/sys/syscalls.c ****  Malloc and related functions depend on this
 172:src/sys/syscalls.c ****  */
 173:src/sys/syscalls.c **** 
 174:src/sys/syscalls.c **** caddr_t _sbrk(int incr) {
 594              		.loc 1 174 0
 595              		.cfi_startproc
 596              		@ args = 0, pretend = 0, frame = 0
 597              		@ frame_needed = 0, uses_anonymous_args = 0
 598              	.LVL52:
 599 016c 10B5     		push	{r4, lr}
 600              		.cfi_def_cfa_offset 8
 601              		.cfi_offset 4, -8
 602              		.cfi_offset 14, -4
 175:src/sys/syscalls.c **** 
 176:src/sys/syscalls.c ****     extern char __heap_bottom; /* Defined by the linker */
 177:src/sys/syscalls.c ****     static char *heap_top=&__heap_bottom;
 178:src/sys/syscalls.c **** 
 179:src/sys/syscalls.c ****     char *prev_heap_top=heap_top;
 603              		.loc 1 179 0
 604 016e 0C4C     		ldr	r4, .L85
 605 0170 2368     		ldr	r3, [r4]
 606              	.LVL53:
 180:src/sys/syscalls.c **** 
 181:src/sys/syscalls.c ****     register char * stack_bottom ;
 182:src/sys/syscalls.c **** 
 183:src/sys/syscalls.c ****     asm volatile ("MRS %0, msp\n" : "=r" (stack_bottom) );
 607              		.loc 1 183 0
 608              	@ 183 "src/sys/syscalls.c" 1
 609 0172 EFF30881 		MRS r1, msp
 610              	
 611              	@ 0 "" 2
 184:src/sys/syscalls.c **** 
 185:src/sys/syscalls.c ****      if (heap_top + incr + 0x100 > stack_bottom)
 612              		.loc 1 185 0
 613              		.thumb
 614 0176 00F58072 		add	r2, r0, #256
 615 017a 1A44     		add	r2, r2, r3
 616 017c 9142     		cmp	r1, r2
 617 017e 0AD2     		bcs	.L83
 186:src/sys/syscalls.c ****      {
 187:src/sys/syscalls.c ****        _write (STDERR_FILENO, "Out of heap space !!!\r\n", 23);
 618              		.loc 1 187 0
 619 0180 0849     		ldr	r1, .L85+4
 620 0182 1722     		movs	r2, #23
 621 0184 0220     		movs	r0, #2
 622              	.LVL54:
 623 0186 FFF7FEFF 		bl	_write
 624              	.LVL55:
 188:src/sys/syscalls.c ****        errno = ENOMEM;
 625              		.loc 1 188 0
 626 018a 074B     		ldr	r3, .L85+8
 627 018c 0C22     		movs	r2, #12
 628 018e 1A60     		str	r2, [r3]
 189:src/sys/syscalls.c ****        return  (caddr_t) -1;
 629              		.loc 1 189 0
 630 0190 4FF0FF30 		mov	r0, #-1
 631 0194 10BD     		pop	{r4, pc}
 632              	.LVL56:
 633              	.L83:
 190:src/sys/syscalls.c ****        exit(255);
 191:src/sys/syscalls.c ****      } else {
 192:src/sys/syscalls.c ****        heap_top += incr;
 634              		.loc 1 192 0
 635 0196 1844     		add	r0, r0, r3
 636              	.LVL57:
 637 0198 2060     		str	r0, [r4]
 193:src/sys/syscalls.c ****        return (caddr_t) prev_heap_top;
 638              		.loc 1 193 0
 639 019a 1846     		mov	r0, r3
 194:src/sys/syscalls.c ****      }
 195:src/sys/syscalls.c **** }
 640              		.loc 1 195 0
 641 019c 10BD     		pop	{r4, pc}
 642              	.L86:
 643 019e 00BF     		.align	2
 644              	.L85:
 645 01a0 00000000 		.word	.LANCHOR0
 646 01a4 00000000 		.word	.LC0
 647 01a8 00000000 		.word	errno
 648              		.cfi_endproc
 649              	.LFE409:
 650              		.size	_sbrk, .-_sbrk
 651              		.global	environ
 652              		.global	__env
 653              		.section	.rodata.str1.1,"aMS",%progbits,1
 654              	.LC0:
 655 0000 4F757420 		.ascii	"Out of heap space !!!\015\012\000"
 655      6F662068 
 655      65617020 
 655      73706163 
 655      65202121 
 656              		.data
 657              		.align	2
 658              		.set	.LANCHOR0,. + 0
 659              		.type	heap_top.6770, %object
 660              		.size	heap_top.6770, 4
 661              	heap_top.6770:
 662 0000 00000000 		.word	__heap_bottom
 663              		.type	environ, %object
 664              		.size	environ, 4
 665              	environ:
 666 0004 00000000 		.word	__env
 667              		.bss
 668              		.align	2
 669              		.type	__env, %object
 670              		.size	__env, 4
 671              	__env:
 672 0000 00000000 		.space	4
 673              		.text
 674              	.Letext0:
 675              		.file 2 "/usr/include/newlib/machine/_default_types.h"
 676              		.file 3 "/usr/include/newlib/sys/_types.h"
 677              		.file 4 "/usr/include/newlib/sys/_stdint.h"
 678              		.file 5 "/usr/include/newlib/sys/types.h"
 679              		.file 6 "/usr/include/newlib/sys/stat.h"
 680              		.file 7 "/usr/include/newlib/sys/times.h"
 681              		.file 8 "src/sys/devices.h"
 682              		.file 9 "/usr/include/newlib/sys/unistd.h"