   1              		.syntax unified
   2              		.arch armv7e-m
   3              		.eabi_attribute 27, 1
   4              		.eabi_attribute 28, 1
   5              		.fpu fpv4-sp-d16
   6              		.eabi_attribute 20, 1
   7              		.eabi_attribute 21, 1
   8              		.eabi_attribute 23, 3
   9              		.eabi_attribute 24, 1
  10              		.eabi_attribute 25, 1
  11              		.eabi_attribute 26, 1
  12              		.eabi_attribute 30, 4
  13              		.eabi_attribute 34, 1
  14              		.eabi_attribute 18, 4
  15              		.thumb
  16              		.file	"adc.c"
  17              		.text
  18              	.Ltext0:
  19              		.cfi_sections	.debug_frame
  20              		.align	1
  21              		.global	ADC_set_prediv
  22              		.thumb
  23              		.thumb_func
  24              		.type	ADC_set_prediv, %function
  25              	ADC_set_prediv:
  26              	.LFB392:
  27              		.file 1 "src/adc.c"
   1:src/adc.c     **** #include "sys/devices.h"
   2:src/adc.c     **** #include "sys/cm4.h"
   3:src/adc.c     **** #include "sys/clock.h"
   4:src/adc.c     **** 
   5:src/adc.c     **** void ADC_set_prediv(uint32_t val) {
  28              		.loc 1 5 0
  29              		.cfi_startproc
  30              		@ args = 0, pretend = 0, frame = 0
  31              		@ frame_needed = 0, uses_anonymous_args = 0
  32              		@ link register save eliminated.
  33              	.LVL0:
   6:src/adc.c     ****   ADC_common.CCR= (ADC_common.CCR & ~(3<<16)) | (val & 3)<<16;
  34              		.loc 1 6 0
  35 0000 044A     		ldr	r2, .L2
  36 0002 5368     		ldr	r3, [r2, #4]
  37 0004 00F00300 		and	r0, r0, #3
  38              	.LVL1:
  39 0008 23F44033 		bic	r3, r3, #196608
  40 000c 43EA0043 		orr	r3, r3, r0, lsl #16
  41 0010 5360     		str	r3, [r2, #4]
  42 0012 7047     		bx	lr
  43              	.L3:
  44              		.align	2
  45              	.L2:
  46 0014 00000000 		.word	ADC_common
  47              		.cfi_endproc
  48              	.LFE392:
  49              		.size	ADC_set_prediv, .-ADC_set_prediv
  50              		.align	1
  51              		.global	enable_Vrefint
  52              		.thumb
  53              		.thumb_func
  54              		.type	enable_Vrefint, %function
  55              	enable_Vrefint:
  56              	.LFB393:
   7:src/adc.c     **** }
   8:src/adc.c     **** 
   9:src/adc.c     **** void enable_Vrefint() {
  57              		.loc 1 9 0
  58              		.cfi_startproc
  59              		@ args = 0, pretend = 0, frame = 0
  60              		@ frame_needed = 0, uses_anonymous_args = 0
  61              		@ link register save eliminated.
  10:src/adc.c     ****   ADC_common.CCR|=(1<<23);
  62              		.loc 1 10 0
  63 0018 024A     		ldr	r2, .L5
  64 001a 5368     		ldr	r3, [r2, #4]
  65 001c 43F40003 		orr	r3, r3, #8388608
  66 0020 5360     		str	r3, [r2, #4]
  67 0022 7047     		bx	lr
  68              	.L6:
  69              		.align	2
  70              	.L5:
  71 0024 00000000 		.word	ADC_common
  72              		.cfi_endproc
  73              	.LFE393:
  74              		.size	enable_Vrefint, .-enable_Vrefint
  75              		.align	1
  76              		.global	enable_Vbat
  77              		.thumb
  78              		.thumb_func
  79              		.type	enable_Vbat, %function
  80              	enable_Vbat:
  81              	.LFB394:
  11:src/adc.c     **** }
  12:src/adc.c     **** void enable_Vbat() {
  82              		.loc 1 12 0
  83              		.cfi_startproc
  84              		@ args = 0, pretend = 0, frame = 0
  85              		@ frame_needed = 0, uses_anonymous_args = 0
  86              		@ link register save eliminated.
  13:src/adc.c     ****   ADC_common.CCR|=(1<<22);
  87              		.loc 1 13 0
  88 0028 024A     		ldr	r2, .L8
  89 002a 5368     		ldr	r3, [r2, #4]
  90 002c 43F48003 		orr	r3, r3, #4194304
  91 0030 5360     		str	r3, [r2, #4]
  92 0032 7047     		bx	lr
  93              	.L9:
  94              		.align	2
  95              	.L8:
  96 0034 00000000 		.word	ADC_common
  97              		.cfi_endproc
  98              	.LFE394:
  99              		.size	enable_Vbat, .-enable_Vbat
 100              		.align	1
 101              		.global	disable_Vrefint
 102              		.thumb
 103              		.thumb_func
 104              		.type	disable_Vrefint, %function
 105              	disable_Vrefint:
 106              	.LFB395:
  14:src/adc.c     **** }
  15:src/adc.c     **** void disable_Vrefint() {
 107              		.loc 1 15 0
 108              		.cfi_startproc
 109              		@ args = 0, pretend = 0, frame = 0
 110              		@ frame_needed = 0, uses_anonymous_args = 0
 111              		@ link register save eliminated.
  16:src/adc.c     ****   ADC_common.CCR&=~(1<<23);
 112              		.loc 1 16 0
 113 0038 024A     		ldr	r2, .L11
 114 003a 5368     		ldr	r3, [r2, #4]
 115 003c 23F40003 		bic	r3, r3, #8388608
 116 0040 5360     		str	r3, [r2, #4]
 117 0042 7047     		bx	lr
 118              	.L12:
 119              		.align	2
 120              	.L11:
 121 0044 00000000 		.word	ADC_common
 122              		.cfi_endproc
 123              	.LFE395:
 124              		.size	disable_Vrefint, .-disable_Vrefint
 125              		.align	1
 126              		.global	disable_Vbat
 127              		.thumb
 128              		.thumb_func
 129              		.type	disable_Vbat, %function
 130              	disable_Vbat:
 131              	.LFB396:
  17:src/adc.c     **** }
  18:src/adc.c     **** void disable_Vbat() {
 132              		.loc 1 18 0
 133              		.cfi_startproc
 134              		@ args = 0, pretend = 0, frame = 0
 135              		@ frame_needed = 0, uses_anonymous_args = 0
 136              		@ link register save eliminated.
  19:src/adc.c     ****   ADC_common.CCR&=~(1<<22);
 137              		.loc 1 19 0
 138 0048 024A     		ldr	r2, .L14
 139 004a 5368     		ldr	r3, [r2, #4]
 140 004c 23F48003 		bic	r3, r3, #4194304
 141 0050 5360     		str	r3, [r2, #4]
 142 0052 7047     		bx	lr
 143              	.L15:
 144              		.align	2
 145              	.L14:
 146 0054 00000000 		.word	ADC_common
 147              		.cfi_endproc
 148              	.LFE396:
 149              		.size	disable_Vbat, .-disable_Vbat
 150              		.align	1
 151              		.global	get_sampling_time_us
 152              		.thumb
 153              		.thumb_func
 154              		.type	get_sampling_time_us, %function
 155              	get_sampling_time_us:
 156              	.LFB397:
  20:src/adc.c     **** }
  21:src/adc.c     **** 
  22:src/adc.c     **** float get_sampling_time_us(volatile struct ADCx_registers *ADCx,
  23:src/adc.c     **** 			   uint32_t channel) {
 157              		.loc 1 23 0
 158              		.cfi_startproc
 159              		@ args = 0, pretend = 0, frame = 0
 160              		@ frame_needed = 0, uses_anonymous_args = 0
 161              	.LVL2:
 162 0058 38B5     		push	{r3, r4, r5, lr}
 163              		.cfi_def_cfa_offset 16
 164              		.cfi_offset 3, -16
 165              		.cfi_offset 4, -12
 166              		.cfi_offset 5, -8
 167              		.cfi_offset 14, -4
 168              		.loc 1 23 0
 169 005a 0C46     		mov	r4, r1
 170 005c 0546     		mov	r5, r0
  24:src/adc.c     ****   static const uint32_t ADC_smpr_cycles[8] =
  25:src/adc.c     ****     {3,15,28,56,84,112,144,480};
  26:src/adc.c     ****   static const uint32_t ADC_prediv[4] =
  27:src/adc.c     ****     {2,4,6,8};
  28:src/adc.c     ****   uint32_t ADC_freq=get_APB2CLK()/ADC_prediv[(ADC_common.CCR>>16)&0x3];
 171              		.loc 1 28 0
 172 005e FFF7FEFF 		bl	get_APB2CLK
 173              	.LVL3:
 174 0062 164B     		ldr	r3, .L22
 175 0064 164A     		ldr	r2, .L22+4
 176 0066 5B68     		ldr	r3, [r3, #4]
 177 0068 C3F30143 		ubfx	r3, r3, #16, #2
  29:src/adc.c     ****   uint32_t ADC_cycles;
  30:src/adc.c     ****   if (channel<10) {
 178              		.loc 1 30 0
 179 006c 092C     		cmp	r4, #9
  28:src/adc.c     ****   uint32_t ADC_cycles;
 180              		.loc 1 28 0
 181 006e 52F82330 		ldr	r3, [r2, r3, lsl #2]
 182 0072 B0FBF3F0 		udiv	r0, r0, r3
 183              	.LVL4:
 184              		.loc 1 30 0
 185 0076 03D8     		bhi	.L17
 186              	.LVL5:
 187              	.LBB2:
  31:src/adc.c     ****     uint32_t bit_offset=channel*3;
  32:src/adc.c     ****     uint32_t smpr=((ADCx->SMPR2)>>bit_offset)&0x7;
 188              		.loc 1 32 0
 189 0078 2B69     		ldr	r3, [r5, #16]
 190              	.LVL6:
  31:src/adc.c     ****     uint32_t bit_offset=channel*3;
 191              		.loc 1 31 0
 192 007a 04EB4404 		add	r4, r4, r4, lsl #1
 193              	.LVL7:
 194 007e 05E0     		b	.L20
 195              	.LVL8:
 196              	.L17:
 197              	.LBE2:
  33:src/adc.c     ****     ADC_cycles=ADC_smpr_cycles[smpr];
  34:src/adc.c     ****   } else if (channel<=18) {
 198              		.loc 1 34 0
 199 0080 122C     		cmp	r4, #18
 200 0082 0AD8     		bhi	.L19
 201              	.LVL9:
 202              	.LBB3:
  35:src/adc.c     ****     uint32_t bit_offset=(channel-10)*3;
 203              		.loc 1 35 0
 204 0084 04EB4404 		add	r4, r4, r4, lsl #1
 205              	.LVL10:
  36:src/adc.c     ****     uint32_t smpr=((ADCx->SMPR1)>>bit_offset)&0x7;
 206              		.loc 1 36 0
 207 0088 EB68     		ldr	r3, [r5, #12]
  35:src/adc.c     ****     uint32_t bit_offset=(channel-10)*3;
 208              		.loc 1 35 0
 209 008a 1E3C     		subs	r4, r4, #30
 210              	.LVL11:
 211              	.L20:
 212              		.loc 1 36 0
 213 008c E340     		lsrs	r3, r3, r4
 214 008e 03F00703 		and	r3, r3, #7
  37:src/adc.c     ****     ADC_cycles=ADC_smpr_cycles[smpr];
 215              		.loc 1 37 0
 216 0092 02EB8303 		add	r3, r2, r3, lsl #2
 217 0096 1B69     		ldr	r3, [r3, #16]
 218              	.LVL12:
 219              	.LBE3:
 220 0098 00E0     		b	.L18
 221              	.LVL13:
 222              	.L19:
  38:src/adc.c     ****   } else {
  39:src/adc.c     ****     ADC_cycles=0;
 223              		.loc 1 39 0
 224 009a 0023     		movs	r3, #0
 225              	.LVL14:
 226              	.L18:
  40:src/adc.c     ****   }
  41:src/adc.c     ****   return (ADC_cycles/(ADC_freq/1000000.));
 227              		.loc 1 41 0
 228 009c 07EE903A 		fmsr	s15, r3	@ int
 229 00a0 B8EE670A 		fuitos	s0, s15
 230 00a4 07EE900A 		fmsr	s15, r0	@ int
 231 00a8 9FED067A 		flds	s14, .L22+8
 232 00ac F8EE677A 		fuitos	s15, s15
 233 00b0 C7EE877A 		fdivs	s15, s15, s14
  42:src/adc.c     **** }
 234              		.loc 1 42 0
 235 00b4 80EE270A 		fdivs	s0, s0, s15
 236 00b8 38BD     		pop	{r3, r4, r5, pc}
 237              	.LVL15:
 238              	.L23:
 239 00ba 00BF     		.align	2
 240              	.L22:
 241 00bc 00000000 		.word	ADC_common
 242 00c0 00000000 		.word	.LANCHOR0
 243 00c4 00247449 		.word	1232348160
 244              		.cfi_endproc
 245              	.LFE397:
 246              		.size	get_sampling_time_us, .-get_sampling_time_us
 247              		.align	1
 248              		.global	ADC_set_sampling_time
 249              		.thumb
 250              		.thumb_func
 251              		.type	ADC_set_sampling_time, %function
 252              	ADC_set_sampling_time:
 253              	.LFB398:
  43:src/adc.c     **** 
  44:src/adc.c     **** void ADC_set_sampling_time(volatile struct ADCx_registers *ADCx,
  45:src/adc.c     **** 				   uint32_t channel,uint32_t smpr)
  46:src/adc.c     **** {
 254              		.loc 1 46 0
 255              		.cfi_startproc
 256              		@ args = 0, pretend = 0, frame = 0
 257              		@ frame_needed = 0, uses_anonymous_args = 0
 258              	.LVL16:
  47:src/adc.c     ****   if (channel <= 9)
 259              		.loc 1 47 0
 260 00c8 0929     		cmp	r1, #9
  46:src/adc.c     ****   if (channel <= 9)
 261              		.loc 1 46 0
 262 00ca 10B5     		push	{r4, lr}
 263              		.cfi_def_cfa_offset 8
 264              		.cfi_offset 4, -8
 265              		.cfi_offset 14, -4
 266              		.loc 1 47 0
 267 00cc 0AD8     		bhi	.L25
  48:src/adc.c     ****     {    ADCx->SMPR2=
  49:src/adc.c     **** 	(ADCx->SMPR2 & ~(7<<(3*channel))) |
 268              		.loc 1 49 0
 269 00ce 0469     		ldr	r4, [r0, #16]
 270 00d0 01EB4101 		add	r1, r1, r1, lsl #1
 271              	.LVL17:
 272 00d4 0723     		movs	r3, #7
 273 00d6 8B40     		lsls	r3, r3, r1
 274 00d8 24EA0303 		bic	r3, r4, r3
  50:src/adc.c     **** 	(smpr<<(3*channel));
 275              		.loc 1 50 0
 276 00dc 8A40     		lsls	r2, r2, r1
 277              	.LVL18:
  49:src/adc.c     **** 	(smpr<<(3*channel));
 278              		.loc 1 49 0
 279 00de 1A43     		orrs	r2, r2, r3
  48:src/adc.c     ****     {    ADCx->SMPR2=
 280              		.loc 1 48 0
 281 00e0 0261     		str	r2, [r0, #16]
 282 00e2 10BD     		pop	{r4, pc}
 283              	.LVL19:
 284              	.L25:
  51:src/adc.c     ****     }
  52:src/adc.c     ****   else if (channel <= 18 )
 285              		.loc 1 52 0
 286 00e4 1229     		cmp	r1, #18
 287 00e6 0AD8     		bhi	.L24
  53:src/adc.c     ****     {
  54:src/adc.c     ****       ADCx->SMPR1=
  55:src/adc.c     **** 	(ADCx->SMPR1 & ~(7<<(3*(channel-10)))) |
 288              		.loc 1 55 0
 289 00e8 01EB4101 		add	r1, r1, r1, lsl #1
 290              	.LVL20:
 291 00ec C468     		ldr	r4, [r0, #12]
 292 00ee 1E39     		subs	r1, r1, #30
 293 00f0 0723     		movs	r3, #7
 294 00f2 8B40     		lsls	r3, r3, r1
 295 00f4 24EA0303 		bic	r3, r4, r3
  56:src/adc.c     **** 	(smpr<<(3*(channel-10)));
 296              		.loc 1 56 0
 297 00f8 8A40     		lsls	r2, r2, r1
 298              	.LVL21:
  55:src/adc.c     **** 	(smpr<<(3*(channel-10)));
 299              		.loc 1 55 0
 300 00fa 1A43     		orrs	r2, r2, r3
  54:src/adc.c     **** 	(ADCx->SMPR1 & ~(7<<(3*(channel-10)))) |
 301              		.loc 1 54 0
 302 00fc C260     		str	r2, [r0, #12]
 303              	.L24:
 304 00fe 10BD     		pop	{r4, pc}
 305              		.cfi_endproc
 306              	.LFE398:
 307              		.size	ADC_set_sampling_time, .-ADC_set_sampling_time
 308              		.align	1
 309              		.global	ADC_set_sequence
 310              		.thumb
 311              		.thumb_func
 312              		.type	ADC_set_sequence, %function
 313              	ADC_set_sequence:
 314              	.LFB399:
  57:src/adc.c     ****     }
  58:src/adc.c     **** }
  59:src/adc.c     **** 
  60:src/adc.c     **** void ADC_set_sequence(volatile struct ADCx_registers *ADCx,uint32_t* sequence,uint32_t len) {
 315              		.loc 1 60 0
 316              		.cfi_startproc
 317              		@ args = 0, pretend = 0, frame = 16
 318              		@ frame_needed = 0, uses_anonymous_args = 0
 319              	.LVL22:
 320 0100 F0B5     		push	{r4, r5, r6, r7, lr}
 321              		.cfi_def_cfa_offset 20
 322              		.cfi_offset 4, -20
 323              		.cfi_offset 5, -16
 324              		.cfi_offset 6, -12
 325              		.cfi_offset 7, -8
 326              		.cfi_offset 14, -4
 327 0102 85B0     		sub	sp, sp, #20
 328              		.cfi_def_cfa_offset 40
  61:src/adc.c     ****   uint32_t i,sqr[3]={0,0,0};
 329              		.loc 1 61 0
 330 0104 0023     		movs	r3, #0
 331 0106 0193     		str	r3, [sp, #4]
 332 0108 0293     		str	r3, [sp, #8]
 333 010a 0393     		str	r3, [sp, #12]
 334              	.LVL23:
 335              	.L28:
  62:src/adc.c     ****   for (i=0;i<len;i++) {
 336              		.loc 1 62 0 discriminator 1
 337 010c 9342     		cmp	r3, r2
 338 010e 15D0     		beq	.L30
  63:src/adc.c     ****     sqr[i/6]|=(sequence[i]&31)<<(5*(i%6));
 339              		.loc 1 63 0 discriminator 3
 340 0110 04AD     		add	r5, sp, #16
 341 0112 0627     		movs	r7, #6
 342 0114 B3FBF7F4 		udiv	r4, r3, r7
 343 0118 05EB8406 		add	r6, r5, r4, lsl #2
 344 011c 51F82350 		ldr	r5, [r1, r3, lsl #2]
 345 0120 07FB1434 		mls	r4, r7, r4, r3
 346 0124 04EB8404 		add	r4, r4, r4, lsl #2
 347 0128 05F01F05 		and	r5, r5, #31
 348 012c A540     		lsls	r5, r5, r4
 349 012e 56F80C4C 		ldr	r4, [r6, #-12]
 350 0132 2543     		orrs	r5, r5, r4
 351 0134 46F80C5C 		str	r5, [r6, #-12]
  62:src/adc.c     ****   for (i=0;i<len;i++) {
 352              		.loc 1 62 0 discriminator 3
 353 0138 0133     		adds	r3, r3, #1
 354              	.LVL24:
 355 013a E7E7     		b	.L28
 356              	.L30:
  64:src/adc.c     ****   }
  65:src/adc.c     ****   sqr[2]|=(((len-1)&15)<<20);
 357              		.loc 1 65 0
 358 013c 039A     		ldr	r2, [sp, #12]
 359              	.LVL25:
 360 013e 013B     		subs	r3, r3, #1
 361              	.LVL26:
 362 0140 03F00F03 		and	r3, r3, #15
 363              	.LVL27:
 364 0144 42EA0353 		orr	r3, r2, r3, lsl #20
  66:src/adc.c     ****   ADCx->SQR1=sqr[2];
 365              		.loc 1 66 0
 366 0148 C362     		str	r3, [r0, #44]
  67:src/adc.c     ****   ADCx->SQR2=sqr[1];
 367              		.loc 1 67 0
 368 014a 029B     		ldr	r3, [sp, #8]
 369 014c 0363     		str	r3, [r0, #48]
  68:src/adc.c     ****   ADCx->SQR3=sqr[0];
 370              		.loc 1 68 0
 371 014e 019B     		ldr	r3, [sp, #4]
 372 0150 4363     		str	r3, [r0, #52]
  69:src/adc.c     **** }
 373              		.loc 1 69 0
 374 0152 05B0     		add	sp, sp, #20
 375              		.cfi_def_cfa_offset 20
 376              		@ sp needed
 377 0154 F0BD     		pop	{r4, r5, r6, r7, pc}
 378              		.cfi_endproc
 379              	.LFE399:
 380              		.size	ADC_set_sequence, .-ADC_set_sequence
 381              		.align	1
 382              		.global	ADC_init_sequence
 383              		.thumb
 384              		.thumb_func
 385              		.type	ADC_init_sequence, %function
 386              	ADC_init_sequence:
 387              	.LFB400:
  70:src/adc.c     **** 
  71:src/adc.c     **** 
  72:src/adc.c     **** void ADC_init_sequence(volatile struct ADCx_registers *ADCx,uint32_t* sequence,uint32_t len) {
 388              		.loc 1 72 0
 389              		.cfi_startproc
 390              		@ args = 0, pretend = 0, frame = 0
 391              		@ frame_needed = 0, uses_anonymous_args = 0
 392              	.LVL28:
 393 0156 10B5     		push	{r4, lr}
 394              		.cfi_def_cfa_offset 8
 395              		.cfi_offset 4, -8
 396              		.cfi_offset 14, -4
  73:src/adc.c     ****   ADCx->CR2= 0x00000001; /* EOCS=1, ADON=1 */
 397              		.loc 1 73 0
 398 0158 0124     		movs	r4, #1
 399 015a 8460     		str	r4, [r0, #8]
  74:src/adc.c     ****   ADCx->CR1= 0x00000100; /* SCAN=1 */
 400              		.loc 1 74 0
 401 015c 4FF48074 		mov	r4, #256
 402 0160 4460     		str	r4, [r0, #4]
  75:src/adc.c     ****   ADC_set_sequence(ADCx,sequence,len);
  76:src/adc.c     **** }
 403              		.loc 1 76 0
 404 0162 BDE81040 		pop	{r4, lr}
 405              		.cfi_restore 14
 406              		.cfi_restore 4
 407              		.cfi_def_cfa_offset 0
  75:src/adc.c     ****   ADC_set_sequence(ADCx,sequence,len);
 408              		.loc 1 75 0
 409 0166 FFF7FEBF 		b	ADC_set_sequence
 410              	.LVL29:
 411              		.cfi_endproc
 412              	.LFE400:
 413              		.size	ADC_init_sequence, .-ADC_init_sequence
 414              		.align	1
 415              		.global	ADC_init_single_channel
 416              		.thumb
 417              		.thumb_func
 418              		.type	ADC_init_single_channel, %function
 419              	ADC_init_single_channel:
 420              	.LFB401:
  77:src/adc.c     **** 
  78:src/adc.c     **** void ADC_init_single_channel(volatile struct ADCx_registers *ADCx,uint32_t channel) {
 421              		.loc 1 78 0
 422              		.cfi_startproc
 423              		@ args = 0, pretend = 0, frame = 8
 424              		@ frame_needed = 0, uses_anonymous_args = 0
 425              	.LVL30:
 426 016a 13B5     		push	{r0, r1, r4, lr}
 427              		.cfi_def_cfa_offset 16
 428              		.cfi_offset 4, -8
 429              		.cfi_offset 14, -4
 430              		.loc 1 78 0
 431 016c 02AB     		add	r3, sp, #8
  79:src/adc.c     ****   ADCx->CR2= 0x00000001; /* EOCS=0, ADON=1 */
 432              		.loc 1 79 0
 433 016e 0122     		movs	r2, #1
  78:src/adc.c     ****   ADCx->CR2= 0x00000001; /* EOCS=0, ADON=1 */
 434              		.loc 1 78 0
 435 0170 43F8041D 		str	r1, [r3, #-4]!
  80:src/adc.c     ****   ADCx->CR1= 0x00000000; /* SCAN=0 */
 436              		.loc 1 80 0
 437 0174 0021     		movs	r1, #0
 438              	.LVL31:
  79:src/adc.c     ****   ADCx->CR2= 0x00000001; /* EOCS=0, ADON=1 */
 439              		.loc 1 79 0
 440 0176 8260     		str	r2, [r0, #8]
 441              		.loc 1 80 0
 442 0178 4160     		str	r1, [r0, #4]
  81:src/adc.c     ****   ADC_set_sequence(ADCx,&channel,1);
 443              		.loc 1 81 0
 444 017a 1946     		mov	r1, r3
 445 017c FFF7FEFF 		bl	ADC_set_sequence
 446              	.LVL32:
  82:src/adc.c     **** }
 447              		.loc 1 82 0
 448 0180 02B0     		add	sp, sp, #8
 449              		.cfi_def_cfa_offset 8
 450              	.LVL33:
 451              		@ sp needed
 452 0182 10BD     		pop	{r4, pc}
 453              		.cfi_endproc
 454              	.LFE401:
 455              		.size	ADC_init_single_channel, .-ADC_init_single_channel
 456              		.align	1
 457              		.global	ADC_convert_sequence
 458              		.thumb
 459              		.thumb_func
 460              		.type	ADC_convert_sequence, %function
 461              	ADC_convert_sequence:
 462              	.LFB402:
  83:src/adc.c     **** 
  84:src/adc.c     **** uint32_t ADC_convert_sequence(volatile struct ADCx_registers *ADCx,uint32_t *data_buffer) {
 463              		.loc 1 84 0
 464              		.cfi_startproc
 465              		@ args = 0, pretend = 0, frame = 0
 466              		@ frame_needed = 0, uses_anonymous_args = 0
 467              	.LVL34:
 468 0184 0346     		mov	r3, r0
  85:src/adc.c     ****   uint32_t len=((ADCx->SQR1>>20)&15) +1;
 469              		.loc 1 85 0
 470 0186 C26A     		ldr	r2, [r0, #44]
  86:src/adc.c     ****   uint32_t i=0;
  87:src/adc.c     ****   ADCx->SR = 0; /* clear flags */
 471              		.loc 1 87 0
 472 0188 0020     		movs	r0, #0
 473              	.LVL35:
 474 018a 1860     		str	r0, [r3]
  84:src/adc.c     ****   uint32_t len=((ADCx->SQR1>>20)&15) +1;
 475              		.loc 1 84 0
 476 018c 10B5     		push	{r4, lr}
 477              		.cfi_def_cfa_offset 8
 478              		.cfi_offset 4, -8
 479              		.cfi_offset 14, -4
  88:src/adc.c     ****   ADCx->CR2|=(1<<10); /* enable EOC after each conversion */
 480              		.loc 1 88 0
 481 018e 9C68     		ldr	r4, [r3, #8]
 482 0190 44F48064 		orr	r4, r4, #1024
 483 0194 9C60     		str	r4, [r3, #8]
  89:src/adc.c     ****   ADCx->CR2|=(1<<30); /* SWSTART=1 */
 484              		.loc 1 89 0
 485 0196 9C68     		ldr	r4, [r3, #8]
  85:src/adc.c     ****   uint32_t i=0;
 486              		.loc 1 85 0
 487 0198 C2F30352 		ubfx	r2, r2, #20, #4
 488              		.loc 1 89 0
 489 019c 44F08044 		orr	r4, r4, #1073741824
  85:src/adc.c     ****   uint32_t i=0;
 490              		.loc 1 85 0
 491 01a0 0132     		adds	r2, r2, #1
 492              	.LVL36:
 493              		.loc 1 89 0
 494 01a2 9C60     		str	r4, [r3, #8]
 495 01a4 0439     		subs	r1, r1, #4
 496              	.LVL37:
 497              	.L34:
  90:src/adc.c     ****   while (i<len) {
  91:src/adc.c     ****     while ((ADCx->SR&0x22)==0); /* Wait for EOC==1 or OVR==1 */
 498              		.loc 1 91 0 discriminator 1
 499 01a6 1C68     		ldr	r4, [r3]
 500 01a8 14F0220F 		tst	r4, #34
 501 01ac FBD0     		beq	.L34
  92:src/adc.c     ****     if ((ADCx->SR&0x20)!=0) break;
 502              		.loc 1 92 0
 503 01ae 1C68     		ldr	r4, [r3]
 504 01b0 A406     		lsls	r4, r4, #26
 505 01b2 05D4     		bmi	.L35
  93:src/adc.c     ****     data_buffer[i++]=ADCx->DR; /* reading clears flag */
 506              		.loc 1 93 0
 507 01b4 0130     		adds	r0, r0, #1
 508              	.LVL38:
 509 01b6 DC6C     		ldr	r4, [r3, #76]
 510 01b8 41F8044F 		str	r4, [r1, #4]!
  90:src/adc.c     ****   while (i<len) {
 511              		.loc 1 90 0
 512 01bc 9042     		cmp	r0, r2
 513 01be F2D3     		bcc	.L34
 514              	.LVL39:
 515              	.L35:
  94:src/adc.c     ****   }
  95:src/adc.c     ****   return i; /* i<len if overrun */
  96:src/adc.c     **** }
 516              		.loc 1 96 0
 517 01c0 10BD     		pop	{r4, pc}
 518              		.cfi_endproc
 519              	.LFE402:
 520              		.size	ADC_convert_sequence, .-ADC_convert_sequence
 521              		.align	1
 522              		.global	ADC_convert_single_channel
 523              		.thumb
 524              		.thumb_func
 525              		.type	ADC_convert_single_channel, %function
 526              	ADC_convert_single_channel:
 527              	.LFB403:
  97:src/adc.c     **** 
  98:src/adc.c     **** uint32_t ADC_convert_single_channel(volatile struct ADCx_registers *ADCx) {
 528              		.loc 1 98 0
 529              		.cfi_startproc
 530              		@ args = 0, pretend = 0, frame = 0
 531              		@ frame_needed = 0, uses_anonymous_args = 0
 532              		@ link register save eliminated.
 533              	.LVL40:
  99:src/adc.c     ****   ADCx->SR = 0; /* clear flags */
 534              		.loc 1 99 0
 535 01c2 0023     		movs	r3, #0
 536 01c4 0360     		str	r3, [r0]
 100:src/adc.c     ****   ADCx->CR2|=(1<<30); /* SWSTART=1 */
 537              		.loc 1 100 0
 538 01c6 8368     		ldr	r3, [r0, #8]
 539 01c8 43F08043 		orr	r3, r3, #1073741824
 540 01cc 8360     		str	r3, [r0, #8]
 541              	.L41:
 101:src/adc.c     ****   while ((ADCx->SR&0x2)==0); /* Wait for EOC==1 */
 542              		.loc 1 101 0 discriminator 1
 543 01ce 0368     		ldr	r3, [r0]
 544 01d0 9B07     		lsls	r3, r3, #30
 545 01d2 FCD5     		bpl	.L41
 102:src/adc.c     ****   return ADCx->DR;
 546              		.loc 1 102 0
 547 01d4 C06C     		ldr	r0, [r0, #76]
 548              	.LVL41:
 103:src/adc.c     **** }
 549              		.loc 1 103 0
 550 01d6 7047     		bx	lr
 551              		.cfi_endproc
 552              	.LFE403:
 553              		.size	ADC_convert_single_channel, .-ADC_convert_single_channel
 554              		.section	.rodata
 555              		.align	2
 556              		.set	.LANCHOR0,. + 0
 557              		.type	ADC_prediv.5740, %object
 558              		.size	ADC_prediv.5740, 16
 559              	ADC_prediv.5740:
 560 0000 02000000 		.word	2
 561 0004 04000000 		.word	4
 562 0008 06000000 		.word	6
 563 000c 08000000 		.word	8
 564              		.type	ADC_smpr_cycles.5739, %object
 565              		.size	ADC_smpr_cycles.5739, 32
 566              	ADC_smpr_cycles.5739:
 567 0010 03000000 		.word	3
 568 0014 0F000000 		.word	15
 569 0018 1C000000 		.word	28
 570 001c 38000000 		.word	56
 571 0020 54000000 		.word	84
 572 0024 70000000 		.word	112
 573 0028 90000000 		.word	144
 574 002c E0010000 		.word	480
 575              		.text
 576              	.Letext0:
 577              		.file 2 "/usr/include/newlib/machine/_default_types.h"
 578              		.file 3 "/usr/include/newlib/sys/_stdint.h"
 579              		.file 4 "src/sys/devices.h"
 580              		.file 5 "src/sys/clock.h"